; Function Attrs: nounwind uwtable
define i32 @duckdb_je_mallctl(ptr noundef %0, ptr noundef %1, ptr noundef %2, ptr noundef %3, i64 noundef %4) local_unnamed_addr #2 {
  %6 = load i32, ptr @duckdb_je_malloc_init_state, align 4, !tbaa !3
  %7 = icmp eq i32 %6, 0
  br i1 %7, label %malloc_init.exit, label %8, !prof !9

8:                                                ; preds = %5
  %9 = tail call fastcc zeroext i1 @malloc_init_hard()
  br i1 %9, label %malloc_init.exit.thread, label %malloc_init.exit

malloc_init.exit:                                 ; preds = %8, %5
  %10 = tail call nonnull align 8 ptr @llvm.threadlocal.address.p0(ptr align 8 @duckdb_je_tsd_tls)
  %11 = getelementptr inbounds nuw i8, ptr %10, i64 824
  %12 = load i8, ptr %11, align 8, !tbaa !10
  %.not.i = icmp eq i8 %12, 0
  br i1 %.not.i, label %tsd_fetch_impl.exit, label %13, !prof !9

13:                                               ; preds = %malloc_init.exit
  %14 = tail call ptr @duckdb_je_tsd_fetch_slow(ptr noundef nonnull %10, i1 noundef zeroext false) #21
  br label %tsd_fetch_impl.exit

tsd_fetch_impl.exit:                              ; preds = %malloc_init.exit, %13
  %.0.i9 = phi ptr [ %14, %13 ], [ %10, %malloc_init.exit ]
  %15 = tail call i32 @duckdb_je_ctl_byname(ptr noundef %.0.i9, ptr noundef %0, ptr noundef %1, ptr noundef %2, ptr noundef %3, i64 noundef %4) #21
  br label %malloc_init.exit.thread

malloc_init.exit.thread:                          ; preds = %8, %tsd_fetch_impl.exit
  %.0 = phi i32 [ %15, %tsd_fetch_impl.exit ], [ 11, %8 ]
  ret i32 %.0
}